
build/arm_test/arm_test.elf:     file format elf32-littlearm


Disassembly of section .text:

00000000 <_Reset>:
       0:	ea000005 	b	1c <enable_cache>
       4:	00001004 	.word	0x00001004
       8:	00003ffc 	.word	0x00003ffc
       c:	fff00002 	.word	0xfff00002
      10:	00001005 	.word	0x00001005
      14:	7fffffff 	.word	0x7fffffff
      18:	ffffffff 	.word	0xffffffff

0000001c <enable_cache>:
      1c:	e3a00004 	mov	r0, #4
      20:	e5901000 	ldr	r1, [r0]
      24:	ee011f11 	mcr	15, 0, r1, cr1, cr1, {0}
      28:	e3a01001 	mov	r1, #1
      2c:	e1a01701 	lsl	r1, r1, #14
      30:	ee021f30 	mcr	15, 0, r1, cr2, cr0, {1}
      34:	e3e01000 	mvn	r1, #0
      38:	ee031f10 	mcr	15, 0, r1, cr3, cr0, {0}
      3c:	e3a01001 	mov	r1, #1
      40:	e1a01701 	lsl	r1, r1, #14
      44:	e3a0200e 	mov	r2, #14
      48:	e5812000 	str	r2, [r1]
      4c:	e5916000 	ldr	r6, [r1]
      50:	e1a07001 	mov	r7, r1
      54:	e3a01001 	mov	r1, #1
      58:	e1a01701 	lsl	r1, r1, #14
      5c:	e3a00008 	mov	r0, #8
      60:	e5902000 	ldr	r2, [r0]
      64:	e0811002 	add	r1, r1, r2
      68:	e3a0000c 	mov	r0, #12
      6c:	e5902000 	ldr	r2, [r0]
      70:	e5812000 	str	r2, [r1]
      74:	e5916000 	ldr	r6, [r1]
      78:	e1a07001 	mov	r7, r1
      7c:	e3a00010 	mov	r0, #16
      80:	e5901000 	ldr	r1, [r0]
      84:	ee011f11 	mcr	15, 0, r1, cr1, cr1, {0}

00000088 <disable_cache>:
      88:	e329f01f 	msr	CPSR_fc, #31

0000008c <fail_teq>:
      8c:	e3a00001 	mov	r0, #1
      90:	e3300000 	teq	r0, #0
      94:	0afffffc 	beq	8c <fail_teq>
      98:	e3300001 	teq	r0, #1
      9c:	1afffffa 	bne	8c <fail_teq>
      a0:	eb00004d 	bl	1dc <test_sat>

000000a4 <fail_sat>:
      a4:	e3300000 	teq	r0, #0
      a8:	e3a01000 	mov	r1, #0
      ac:	1afffffc 	bne	a4 <fail_sat>
      b0:	eb0000a3 	bl	344 <test_clz>

000000b4 <fail0>:
      b4:	e3300000 	teq	r0, #0
      b8:	e3a01000 	mov	r1, #0
      bc:	1afffffc 	bne	b4 <fail0>
      c0:	eb0000a5 	bl	35c <test_cond>

000000c4 <fail1>:
      c4:	e3300000 	teq	r0, #0
      c8:	e3a01001 	mov	r1, #1
      cc:	1afffffc 	bne	c4 <fail1>
      d0:	eb0000c0 	bl	3d8 <test_fwd>

000000d4 <fail2>:
      d4:	e3300000 	teq	r0, #0
      d8:	e3a01002 	mov	r1, #2
      dc:	1afffffc 	bne	d4 <fail2>
      e0:	eb0000d0 	bl	428 <test_bshift>

000000e4 <fail3>:
      e4:	e3300000 	teq	r0, #0
      e8:	e3a01003 	mov	r1, #3
      ec:	1afffffc 	bne	e4 <fail3>
      f0:	eb000112 	bl	540 <test_logic>

000000f4 <fail4>:
      f4:	e3300000 	teq	r0, #0
      f8:	e3a01004 	mov	r1, #4
      fc:	1afffffc 	bne	f4 <fail4>
     100:	eb00012e 	bl	5c0 <test_adder>

00000104 <fail5>:
     104:	e3300000 	teq	r0, #0
     108:	e3a01005 	mov	r1, #5
     10c:	1afffffc 	bne	104 <fail5>
     110:	eb00016a 	bl	6c0 <test_bshift_reg>

00000114 <fail6>:
     114:	e3300000 	teq	r0, #0
     118:	e3a01006 	mov	r1, #6
     11c:	1afffffc 	bne	114 <fail6>
     120:	eb0001c8 	bl	848 <test_load>

00000124 <fail7>:
     124:	e3300000 	teq	r0, #0
     128:	e3a01007 	mov	r1, #7
     12c:	1afffffc 	bne	124 <fail7>
     130:	eb000228 	bl	9d8 <test_store>

00000134 <fail8>:
     134:	e3300000 	teq	r0, #0
     138:	e3a01008 	mov	r1, #8
     13c:	1afffffc 	bne	134 <fail8>
     140:	eb000247 	bl	a64 <test_byte>

00000144 <fail9>:
     144:	e3300000 	teq	r0, #0
     148:	e3a01009 	mov	r1, #9
     14c:	1afffffc 	bne	144 <fail9>
     150:	eb00025c 	bl	ac8 <test_cpsr>

00000154 <fail10>:
     154:	e3300000 	teq	r0, #0
     158:	e3a0100a 	mov	r1, #10
     15c:	1afffffc 	bne	154 <fail10>
     160:	eb0002f8 	bl	d48 <test_mul>

00000164 <fail11>:
     164:	e3300000 	teq	r0, #0
     168:	e3a0100b 	mov	r1, #11
     16c:	1afffffc 	bne	164 <fail11>
     170:	eb00032a 	bl	e20 <test_ldmstm>

00000174 <fail12>:
     174:	e3300000 	teq	r0, #0
     178:	e3a0100c 	mov	r1, #12
     17c:	1afffffc 	bne	174 <fail12>
     180:	eb000387 	bl	fa4 <test_r15jumps>

00000184 <fail13>:
     184:	e3300000 	teq	r0, #0
     188:	e3a0c00d 	mov	ip, #13
     18c:	1afffffc 	bne	184 <fail13>
     190:	eb0003e1 	bl	111c <test_rti>

00000194 <passed>:
     194:	e3e00000 	mvn	r0, #0
     198:	e1a01000 	mov	r1, r0
     19c:	e1a02000 	mov	r2, r0
     1a0:	e1a03000 	mov	r3, r0
     1a4:	e1a04000 	mov	r4, r0
     1a8:	e1a05000 	mov	r5, r0
     1ac:	e1a06000 	mov	r6, r0
     1b0:	e1a07000 	mov	r7, r0
     1b4:	e3a00018 	mov	r0, #24
     1b8:	e5908000 	ldr	r8, [r0]
     1bc:	e1a09008 	mov	r9, r8
     1c0:	e1a0a008 	mov	sl, r8
     1c4:	e1a0b008 	mov	fp, r8
     1c8:	e1a0c008 	mov	ip, r8
     1cc:	e1a0d008 	mov	sp, r8
     1d0:	e1a0e008 	mov	lr, r8
     1d4:	e3e00000 	mvn	r0, #0

000001d8 <passed_here>:
     1d8:	eafffffe 	b	1d8 <passed_here>

000001dc <test_sat>:
     1dc:	e3a00001 	mov	r0, #1
     1e0:	e3a06014 	mov	r6, #20
     1e4:	e5966000 	ldr	r6, [r6]
     1e8:	e3e01000 	mvn	r1, #0
     1ec:	e3a05102 	mov	r5, #-2147483648	; 0x80000000
     1f0:	e1052051 	qadd	r2, r1, r5
     1f4:	e10f3000 	mrs	r3, CPSR
     1f8:	e2033302 	and	r3, r3, #134217728	; 0x8000000
     1fc:	e3330302 	teq	r3, #134217728	; 0x8000000
     200:	1a000073 	bne	3d4 <fail>
     204:	e2800001 	add	r0, r0, #1
     208:	e1012055 	qadd	r2, r5, r1
     20c:	e3320102 	teq	r2, #-2147483648	; 0x80000000
     210:	1a00006f 	bne	3d4 <fail>
     214:	e2800001 	add	r0, r0, #1
     218:	e0952001 	adds	r2, r5, r1
     21c:	e10f3000 	mrs	r3, CPSR
     220:	e2033302 	and	r3, r3, #134217728	; 0x8000000
     224:	e3330302 	teq	r3, #134217728	; 0x8000000
     228:	1a000069 	bne	3d4 <fail>
     22c:	e2800001 	add	r0, r0, #1
     230:	e3a07000 	mov	r7, #0
     234:	e128f007 	msr	CPSR_f, r7
     238:	e3a01101 	mov	r1, #1073741824	; 0x40000000
     23c:	e3a05101 	mov	r5, #1073741824	; 0x40000000
     240:	e1052051 	qadd	r2, r1, r5
     244:	e10f3000 	mrs	r3, CPSR
     248:	e2033302 	and	r3, r3, #134217728	; 0x8000000
     24c:	e3330302 	teq	r3, #134217728	; 0x8000000
     250:	1a00005f 	bne	3d4 <fail>
     254:	e2800001 	add	r0, r0, #1
     258:	e1012055 	qadd	r2, r5, r1
     25c:	e1320006 	teq	r2, r6
     260:	1a00005b 	bne	3d4 <fail>
     264:	e2800001 	add	r0, r0, #1
     268:	e0953001 	adds	r3, r5, r1
     26c:	e10f3000 	mrs	r3, CPSR
     270:	e2033302 	and	r3, r3, #134217728	; 0x8000000
     274:	e3330302 	teq	r3, #134217728	; 0x8000000
     278:	1a000055 	bne	3d4 <fail>
     27c:	e2800001 	add	r0, r0, #1
     280:	e128f007 	msr	CPSR_f, r7
     284:	e3a01102 	mov	r1, #-2147483648	; 0x80000000
     288:	e3a05001 	mov	r5, #1
     28c:	e1252051 	qsub	r2, r1, r5
     290:	e10f3000 	mrs	r3, CPSR
     294:	e2033302 	and	r3, r3, #134217728	; 0x8000000
     298:	e3330302 	teq	r3, #134217728	; 0x8000000
     29c:	1a00004c 	bne	3d4 <fail>
     2a0:	e2800001 	add	r0, r0, #1
     2a4:	e1212055 	qsub	r2, r5, r1
     2a8:	e1320006 	teq	r2, r6
     2ac:	1a000048 	bne	3d4 <fail>
     2b0:	e2800001 	add	r0, r0, #1
     2b4:	e1252051 	qsub	r2, r1, r5
     2b8:	e3320102 	teq	r2, #-2147483648	; 0x80000000
     2bc:	1a000044 	bne	3d4 <fail>
     2c0:	e2800001 	add	r0, r0, #1
     2c4:	e0552001 	subs	r2, r5, r1
     2c8:	e10f2000 	mrs	r2, CPSR
     2cc:	e2022302 	and	r2, r2, #134217728	; 0x8000000
     2d0:	e3320302 	teq	r2, #134217728	; 0x8000000
     2d4:	1a00003e 	bne	3d4 <fail>
     2d8:	e2800001 	add	r0, r0, #1
     2dc:	e128f007 	msr	CPSR_f, r7
     2e0:	e3e01106 	mvn	r1, #-2147483647	; 0x80000001
     2e4:	e3e05001 	mvn	r5, #1
     2e8:	e1252051 	qsub	r2, r1, r5
     2ec:	e10f3000 	mrs	r3, CPSR
     2f0:	e2033302 	and	r3, r3, #134217728	; 0x8000000
     2f4:	e3330302 	teq	r3, #134217728	; 0x8000000
     2f8:	1a000035 	bne	3d4 <fail>
     2fc:	e2800001 	add	r0, r0, #1
     300:	e1212055 	qsub	r2, r5, r1
     304:	e3320102 	teq	r2, #-2147483648	; 0x80000000
     308:	1a000031 	bne	3d4 <fail>
     30c:	e2800001 	add	r0, r0, #1
     310:	e1252051 	qsub	r2, r1, r5
     314:	e1320006 	teq	r2, r6
     318:	1a00002d 	bne	3d4 <fail>
     31c:	e2800001 	add	r0, r0, #1
     320:	e0552001 	subs	r2, r5, r1
     324:	e10f4000 	mrs	r4, CPSR
     328:	e2044302 	and	r4, r4, #134217728	; 0x8000000
     32c:	e3340302 	teq	r4, #134217728	; 0x8000000
     330:	1a000027 	bne	3d4 <fail>
     334:	e2800001 	add	r0, r0, #1
     338:	e3a00000 	mov	r0, #0
     33c:	e128f000 	msr	CPSR_f, r0
     340:	e12fff1e 	bx	lr

00000344 <test_clz>:
     344:	e3a00001 	mov	r0, #1
     348:	e16f1f10 	clz	r1, r0
     34c:	e331001f 	teq	r1, #31
     350:	1a00001f 	bne	3d4 <fail>
     354:	e3a00000 	mov	r0, #0
     358:	e12fff1e 	bx	lr

0000035c <test_cond>:
     35c:	e3a00001 	mov	r0, #1
     360:	e3b05000 	movs	r5, #0
     364:	1a00001a 	bne	3d4 <fail>
     368:	4a000019 	bmi	3d4 <fail>
     36c:	e2800001 	add	r0, r0, #1
     370:	e3b05001 	movs	r5, #1
     374:	e3a05000 	mov	r5, #0
     378:	0a000015 	beq	3d4 <fail>
     37c:	4a000014 	bmi	3d4 <fail>
     380:	e2800001 	add	r0, r0, #1
     384:	e3f05001 	mvns	r5, #1
     388:	e3a05000 	mov	r5, #0
     38c:	0a000010 	beq	3d4 <fail>
     390:	5a00000f 	bpl	3d4 <fail>
     394:	e2800001 	add	r0, r0, #1
     398:	e3b05001 	movs	r5, #1
     39c:	53b05000 	movspl	r5, #0
     3a0:	13b05001 	movsne	r5, #1
     3a4:	43b05002 	movsmi	r5, #2
     3a8:	1a000009 	bne	3d4 <fail>
     3ac:	e3550000 	cmp	r5, #0
     3b0:	1a000007 	bne	3d4 <fail>
     3b4:	e2800001 	add	r0, r0, #1
     3b8:	ea000002 	b	3c8 <.dummy>
     3bc:	e3f05000 	mvns	r5, #0
     3c0:	e3f05001 	mvns	r5, #1
     3c4:	e3f05002 	mvns	r5, #2

000003c8 <.dummy>:
     3c8:	1a000001 	bne	3d4 <fail>
     3cc:	4a000000 	bmi	3d4 <fail>
     3d0:	e3a00000 	mov	r0, #0

000003d4 <fail>:
     3d4:	e12fff1e 	bx	lr

000003d8 <test_fwd>:
     3d8:	e3a00001 	mov	r0, #1
     3dc:	e3a01001 	mov	r1, #1
     3e0:	e2811001 	add	r1, r1, #1
     3e4:	e2811001 	add	r1, r1, #1
     3e8:	e2811001 	add	r1, r1, #1
     3ec:	e2811001 	add	r1, r1, #1
     3f0:	e2811001 	add	r1, r1, #1
     3f4:	e3510006 	cmp	r1, #6
     3f8:	1afffff5 	bne	3d4 <fail>
     3fc:	e2800001 	add	r0, r0, #1
     400:	e3a01001 	mov	r1, #1
     404:	e3a01002 	mov	r1, #2
     408:	e3a01003 	mov	r1, #3
     40c:	e3a01004 	mov	r1, #4
     410:	e3a01005 	mov	r1, #5
     414:	e3510005 	cmp	r1, #5
     418:	1affffed 	bne	3d4 <fail>
     41c:	e2800001 	add	r0, r0, #1
     420:	e3a00000 	mov	r0, #0
     424:	e12fff1e 	bx	lr

00000428 <test_bshift>:
     428:	e3a00001 	mov	r0, #1
     42c:	e3b0520f 	movs	r5, #-268435456	; 0xf0000000
     430:	e3a0100f 	mov	r1, #15
     434:	e1a02e01 	lsl	r2, r1, #28
     438:	e1550002 	cmp	r5, r2
     43c:	1affffe4 	bne	3d4 <fail>
     440:	e2800001 	add	r0, r0, #1
     444:	e1a03261 	ror	r3, r1, #4
     448:	e1550003 	cmp	r5, r3
     44c:	1affffe0 	bne	3d4 <fail>
     450:	e2800001 	add	r0, r0, #1
     454:	e1a04e25 	lsr	r4, r5, #28
     458:	e1540001 	cmp	r4, r1
     45c:	1affffdc 	bne	3d4 <fail>
     460:	e2800001 	add	r0, r0, #1
     464:	e3a01102 	mov	r1, #-2147483648	; 0x80000000
     468:	e1a021c1 	asr	r2, r1, #3
     46c:	e1550002 	cmp	r5, r2
     470:	1affffd7 	bne	3d4 <fail>
     474:	e2800001 	add	r0, r0, #1
     478:	e3a01001 	mov	r1, #1
     47c:	e1b01061 	rrxs	r1, r1
     480:	3affffd3 	bcc	3d4 <fail>
     484:	e1b01061 	rrxs	r1, r1
     488:	0affffd1 	beq	3d4 <fail>
     48c:	2affffd0 	bcs	3d4 <fail>
     490:	e2800001 	add	r0, r0, #1
     494:	e3b0520f 	movs	r5, #-268435456	; 0xf0000000
     498:	3affffcd 	bcc	3d4 <fail>
     49c:	e3b0500f 	movs	r5, #15
     4a0:	3affffcb 	bcc	3d4 <fail>
     4a4:	e3b05c01 	movs	r5, #256	; 0x100
     4a8:	2affffc9 	bcs	3d4 <fail>
     4ac:	e2800001 	add	r0, r0, #1
     4b0:	e3a05001 	mov	r5, #1
     4b4:	e1b05085 	lsls	r5, r5, #1
     4b8:	2affffc5 	bcs	3d4 <fail>
     4bc:	e3a05102 	mov	r5, #-2147483648	; 0x80000000
     4c0:	e1b05085 	lsls	r5, r5, #1
     4c4:	3affffc2 	bcc	3d4 <fail>
     4c8:	e2800001 	add	r0, r0, #1
     4cc:	e3a05002 	mov	r5, #2
     4d0:	e1b050a5 	lsrs	r5, r5, #1
     4d4:	2affffbe 	bcs	3d4 <fail>
     4d8:	e1b050a5 	lsrs	r5, r5, #1
     4dc:	3affffbc 	bcc	3d4 <fail>
     4e0:	1affffbb 	bne	3d4 <fail>
     4e4:	e2800001 	add	r0, r0, #1
     4e8:	e3e05001 	mvn	r5, #1
     4ec:	e1b050c5 	asrs	r5, r5, #1
     4f0:	2affffb7 	bcs	3d4 <fail>
     4f4:	e1b050c5 	asrs	r5, r5, #1
     4f8:	3affffb5 	bcc	3d4 <fail>
     4fc:	e2800001 	add	r0, r0, #1
     500:	e3a014a5 	mov	r1, #-1526726656	; 0xa5000000
     504:	e1e02001 	mvn	r2, r1
     508:	e1b03021 	lsrs	r3, r1, #32
     50c:	3affffb0 	bcc	3d4 <fail>
     510:	e1b03022 	lsrs	r3, r2, #32
     514:	2affffae 	bcs	3d4 <fail>
     518:	e2800001 	add	r0, r0, #1
     51c:	e1b03041 	asrs	r3, r1, #32
     520:	3affffab 	bcc	3d4 <fail>
     524:	e3730001 	cmn	r3, #1
     528:	1affffa9 	bne	3d4 <fail>
     52c:	e1b03042 	asrs	r3, r2, #32
     530:	2affffa7 	bcs	3d4 <fail>
     534:	1affffa6 	bne	3d4 <fail>
     538:	e3a00000 	mov	r0, #0
     53c:	e12fff1e 	bx	lr

00000540 <test_logic>:
     540:	e3a00001 	mov	r0, #1
     544:	e3e05000 	mvn	r5, #0
     548:	e1f05005 	mvns	r5, r5
     54c:	1affffa0 	bne	3d4 <fail>
     550:	e2800001 	add	r0, r0, #1
     554:	e3a050a0 	mov	r5, #160	; 0xa0
     558:	e3a0100b 	mov	r1, #11
     55c:	e3a020ab 	mov	r2, #171	; 0xab
     560:	e3a030ba 	mov	r3, #186	; 0xba
     564:	e0154001 	ands	r4, r5, r1
     568:	1affff99 	bne	3d4 <fail>
     56c:	e0154002 	ands	r4, r5, r2
     570:	e1540005 	cmp	r4, r5
     574:	1affff96 	bne	3d4 <fail>
     578:	e2800001 	add	r0, r0, #1
     57c:	e1854001 	orr	r4, r5, r1
     580:	e0324004 	eors	r4, r2, r4
     584:	1affff92 	bne	3d4 <fail>
     588:	e1814005 	orr	r4, r1, r5
     58c:	e1340002 	teq	r4, r2
     590:	1affff8f 	bne	3d4 <fail>
     594:	e2800001 	add	r0, r0, #1
     598:	e1110005 	tst	r1, r5
     59c:	1affff8c 	bne	3d4 <fail>
     5a0:	e1140002 	tst	r4, r2
     5a4:	0affff8a 	beq	3d4 <fail>
     5a8:	e2800001 	add	r0, r0, #1
     5ac:	e1d24003 	bics	r4, r2, r3
     5b0:	e3540001 	cmp	r4, #1
     5b4:	1affff86 	bne	3d4 <fail>
     5b8:	e3a00000 	mov	r0, #0
     5bc:	e12fff1e 	bx	lr

000005c0 <test_adder>:
     5c0:	e3a00001 	mov	r0, #1
     5c4:	e3a0520f 	mov	r5, #-268435456	; 0xf0000000
     5c8:	e1e01005 	mvn	r1, r5
     5cc:	e0912005 	adds	r2, r1, r5
     5d0:	2affff7f 	bcs	3d4 <fail>
     5d4:	6affff7e 	bvs	3d4 <fail>
     5d8:	e2922001 	adds	r2, r2, #1
     5dc:	3affff7c 	bcc	3d4 <fail>
     5e0:	6affff7b 	bvs	3d4 <fail>
     5e4:	e2a22078 	adc	r2, r2, #120	; 0x78
     5e8:	e3520079 	cmp	r2, #121	; 0x79
     5ec:	1affff78 	bne	3d4 <fail>
     5f0:	6affff77 	bvs	3d4 <fail>
     5f4:	e2800001 	add	r0, r0, #1
     5f8:	e3e03207 	mvn	r3, #1879048192	; 0x70000000
     5fc:	e0933005 	adds	r3, r3, r5
     600:	7affff73 	bvc	3d4 <fail>
     604:	3affff72 	bcc	3d4 <fail>
     608:	4affff71 	bmi	3d4 <fail>
     60c:	e3a03201 	mov	r3, #268435456	; 0x10000000
     610:	e0933001 	adds	r3, r3, r1
     614:	6affff6e 	bvs	3d4 <fail>
     618:	2affff6d 	bcs	3d4 <fail>
     61c:	e2933216 	adds	r3, r3, #1610612737	; 0x60000001
     620:	7affff6b 	bvc	3d4 <fail>
     624:	5affff6a 	bpl	3d4 <fail>
     628:	e2800001 	add	r0, r0, #1
     62c:	e3a05201 	mov	r5, #268435456	; 0x10000000
     630:	e0552001 	subs	r2, r5, r1
     634:	3affff66 	bcc	3d4 <fail>
     638:	6affff65 	bvs	3d4 <fail>
     63c:	e2522001 	subs	r2, r2, #1
     640:	3affff63 	bcc	3d4 <fail>
     644:	6affff62 	bvs	3d4 <fail>
     648:	e2522001 	subs	r2, r2, #1
     64c:	2affff60 	bcs	3d4 <fail>
     650:	6affff5f 	bvs	3d4 <fail>
     654:	e2800001 	add	r0, r0, #1
     658:	e3a03209 	mov	r3, #-1879048192	; 0x90000000
     65c:	e0533005 	subs	r3, r3, r5
     660:	6affff5b 	bvs	3d4 <fail>
     664:	3affff5a 	bcc	3d4 <fail>
     668:	e2533001 	subs	r3, r3, #1
     66c:	7affff58 	bvc	3d4 <fail>
     670:	3affff57 	bcc	3d4 <fail>
     674:	e3a03001 	mov	r3, #1
     678:	e0712005 	rsbs	r2, r1, r5
     67c:	3affff54 	bcc	3d4 <fail>
     680:	6affff53 	bvs	3d4 <fail>
     684:	e0732002 	rsbs	r2, r3, r2
     688:	3affff51 	bcc	3d4 <fail>
     68c:	6affff50 	bvs	3d4 <fail>
     690:	e0f32002 	rscs	r2, r3, r2
     694:	2affff4e 	bcs	3d4 <fail>
     698:	6affff4d 	bvs	3d4 <fail>
     69c:	e2800001 	add	r0, r0, #1
     6a0:	e3a02102 	mov	r2, #-2147483648	; 0x80000000
     6a4:	e3e01000 	mvn	r1, #0
     6a8:	e0722001 	rsbs	r2, r2, r1
     6ac:	6affff48 	bvs	3d4 <fail>
     6b0:	4affff47 	bmi	3d4 <fail>
     6b4:	3affff46 	bcc	3d4 <fail>
     6b8:	e3a00000 	mov	r0, #0
     6bc:	e12fff1e 	bx	lr

000006c0 <test_bshift_reg>:
     6c0:	e3a00001 	mov	r0, #1
     6c4:	e3a01000 	mov	r1, #0
     6c8:	e3a02007 	mov	r2, #7
     6cc:	e3a03020 	mov	r3, #32
     6d0:	e3a04021 	mov	r4, #33	; 0x21
     6d4:	e3a0507f 	mov	r5, #127	; 0x7f
     6d8:	e3a06c01 	mov	r6, #256	; 0x100
     6dc:	e2867007 	add	r7, r6, #7
     6e0:	e3a084ff 	mov	r8, #-16777216	; 0xff000000
     6e4:	e1b09218 	lsls	r9, r8, r2
     6e8:	5affff39 	bpl	3d4 <fail>
     6ec:	3affff38 	bcc	3d4 <fail>
     6f0:	e1b09112 	lsls	r9, r2, r1
     6f4:	3affff36 	bcc	3d4 <fail>
     6f8:	e1a09212 	lsl	r9, r2, r2
     6fc:	e3590d0e 	cmp	r9, #896	; 0x380
     700:	1affff33 	bne	3d4 <fail>
     704:	e2800001 	add	r0, r0, #1
     708:	e1b09312 	lsls	r9, r2, r3
     70c:	3affff30 	bcc	3d4 <fail>
     710:	1affff2f 	bne	3d4 <fail>
     714:	e1b09412 	lsls	r9, r2, r4
     718:	2affff2d 	bcs	3d4 <fail>
     71c:	1affff2c 	bne	3d4 <fail>
     720:	e2800001 	add	r0, r0, #1
     724:	e1b09612 	lsls	r9, r2, r6
     728:	2affff29 	bcs	3d4 <fail>
     72c:	e3590007 	cmp	r9, #7
     730:	1affff27 	bne	3d4 <fail>
     734:	e1a09712 	lsl	r9, r2, r7
     738:	e3590d0e 	cmp	r9, #896	; 0x380
     73c:	1affff24 	bne	3d4 <fail>
     740:	e1b09718 	lsls	r9, r8, r7
     744:	5affff22 	bpl	3d4 <fail>
     748:	3affff21 	bcc	3d4 <fail>
     74c:	e2800001 	add	r0, r0, #1
     750:	e3a02004 	mov	r2, #4
     754:	e2867004 	add	r7, r6, #4
     758:	e1b09238 	lsrs	r9, r8, r2
     75c:	4affff1c 	bmi	3d4 <fail>
     760:	2affff1b 	bcs	3d4 <fail>
     764:	e1b09132 	lsrs	r9, r2, r1
     768:	2affff19 	bcs	3d4 <fail>
     76c:	e3590004 	cmp	r9, #4
     770:	1affff17 	bne	3d4 <fail>
     774:	e1b09238 	lsrs	r9, r8, r2
     778:	2affff15 	bcs	3d4 <fail>
     77c:	e35906ff 	cmp	r9, #267386880	; 0xff00000
     780:	1affff13 	bne	3d4 <fail>
     784:	e2800001 	add	r0, r0, #1
     788:	e1b09338 	lsrs	r9, r8, r3
     78c:	3affff10 	bcc	3d4 <fail>
     790:	1affff0f 	bne	3d4 <fail>
     794:	e1b09438 	lsrs	r9, r8, r4
     798:	2affff0d 	bcs	3d4 <fail>
     79c:	1affff0c 	bne	3d4 <fail>
     7a0:	e2800001 	add	r0, r0, #1
     7a4:	e1b09638 	lsrs	r9, r8, r6
     7a8:	2affff09 	bcs	3d4 <fail>
     7ac:	e35904ff 	cmp	r9, #-16777216	; 0xff000000
     7b0:	1affff07 	bne	3d4 <fail>
     7b4:	e1b09738 	lsrs	r9, r8, r7
     7b8:	e35906ff 	cmp	r9, #267386880	; 0xff00000
     7bc:	1affff04 	bne	3d4 <fail>
     7c0:	e3a00000 	mov	r0, #0
     7c4:	e12fff1e 	bx	lr

000007c8 <array>:
     7c8:	00000000 	.word	0x00000000
     7cc:	00000001 	.word	0x00000001
     7d0:	00000002 	.word	0x00000002
     7d4:	00000003 	.word	0x00000003
     7d8:	00000004 	.word	0x00000004
     7dc:	00000005 	.word	0x00000005
     7e0:	00000006 	.word	0x00000006
     7e4:	00000007 	.word	0x00000007
     7e8:	00000008 	.word	0x00000008
     7ec:	00000009 	.word	0x00000009
     7f0:	0000000a 	.word	0x0000000a
     7f4:	0000000b 	.word	0x0000000b
     7f8:	0000000c 	.word	0x0000000c
     7fc:	0000000d 	.word	0x0000000d
     800:	0000000e 	.word	0x0000000e
     804:	0000000f 	.word	0x0000000f

00000808 <array2>:
     808:	00000010 	.word	0x00000010
     80c:	00000011 	.word	0x00000011
     810:	00000012 	.word	0x00000012
     814:	00000013 	.word	0x00000013
     818:	00000014 	.word	0x00000014
     81c:	00000015 	.word	0x00000015
     820:	00000016 	.word	0x00000016
     824:	00000017 	.word	0x00000017
     828:	00000018 	.word	0x00000018
     82c:	00000019 	.word	0x00000019
     830:	0000001a 	.word	0x0000001a
     834:	0000001b 	.word	0x0000001b
     838:	0000001c 	.word	0x0000001c
     83c:	0000001d 	.word	0x0000001d
     840:	0000001e 	.word	0x0000001e
     844:	0000001f 	.word	0x0000001f

00000848 <test_load>:
     848:	e3a00001 	mov	r0, #1
     84c:	e59f117c 	ldr	r1, [pc, #380]	; 9d0 <.larray1>
     850:	e59f217c 	ldr	r2, [pc, #380]	; 9d4 <.larray2>
     854:	e5913000 	ldr	r3, [r1]
     858:	e3330000 	teq	r3, #0
     85c:	1afffedc 	bne	3d4 <fail>
     860:	e5923000 	ldr	r3, [r2]
     864:	e3330010 	teq	r3, #16
     868:	1afffed9 	bne	3d4 <fail>
     86c:	e2800001 	add	r0, r0, #1
     870:	e512303c 	ldr	r3, [r2, #-60]	; 0xffffffc4
     874:	e3330001 	teq	r3, #1
     878:	1afffed5 	bne	3d4 <fail>
     87c:	e5913014 	ldr	r3, [r1, #20]
     880:	e3330005 	teq	r3, #5
     884:	1afffed2 	bne	3d4 <fail>
     888:	e2800001 	add	r0, r0, #1
     88c:	e5913014 	ldr	r3, [r1, #20]
     890:	e3a03000 	mov	r3, #0
     894:	e3330000 	teq	r3, #0
     898:	1afffecd 	bne	3d4 <fail>
     89c:	e2800001 	add	r0, r0, #1
     8a0:	e3a0307c 	mov	r3, #124	; 0x7c

000008a4 <.lloop>:
     8a4:	e7914003 	ldr	r4, [r1, r3]
     8a8:	e1540123 	cmp	r4, r3, lsr #2
     8ac:	1afffec8 	bne	3d4 <fail>
     8b0:	e2533004 	subs	r3, r3, #4
     8b4:	5afffffa 	bpl	8a4 <.lloop>
     8b8:	e2800001 	add	r0, r0, #1
     8bc:	e3a03040 	mov	r3, #64	; 0x40

000008c0 <.lloop2>:
     8c0:	e7124003 	ldr	r4, [r2, -r3]
     8c4:	e2644010 	rsb	r4, r4, #16
     8c8:	e1540123 	cmp	r4, r3, lsr #2
     8cc:	1afffec0 	bne	3d4 <fail>
     8d0:	e2533004 	subs	r3, r3, #4
     8d4:	1afffff9 	bne	8c0 <.lloop2>
     8d8:	e2800001 	add	r0, r0, #1
     8dc:	e3a03000 	mov	r3, #0

000008e0 <.lloop3>:
     8e0:	e7914103 	ldr	r4, [r1, r3, lsl #2]
     8e4:	e1540003 	cmp	r4, r3
     8e8:	1afffeb9 	bne	3d4 <fail>
     8ec:	e2833001 	add	r3, r3, #1
     8f0:	e3530020 	cmp	r3, #32
     8f4:	1afffff9 	bne	8e0 <.lloop3>
     8f8:	e2800001 	add	r0, r0, #1
     8fc:	e3a03000 	mov	r3, #0

00000900 <.lloop4>:
     900:	e7124103 	ldr	r4, [r2, -r3, lsl #2]
     904:	e2644010 	rsb	r4, r4, #16
     908:	e1540003 	cmp	r4, r3
     90c:	1afffeb0 	bne	3d4 <fail>
     910:	e2833001 	add	r3, r3, #1
     914:	e3530010 	cmp	r3, #16
     918:	1afffff8 	bne	900 <.lloop4>
     91c:	e2800001 	add	r0, r0, #1
     920:	e3a0301f 	mov	r3, #31
     924:	e1a05001 	mov	r5, r1

00000928 <.lloop5>:
     928:	e5b54004 	ldr	r4, [r5, #4]!
     92c:	e2644020 	rsb	r4, r4, #32
     930:	e1540003 	cmp	r4, r3
     934:	1afffea6 	bne	3d4 <fail>
     938:	e2533001 	subs	r3, r3, #1
     93c:	1afffff9 	bne	928 <.lloop5>
     940:	e2800001 	add	r0, r0, #1
     944:	e3a0301f 	mov	r3, #31
     948:	e2815080 	add	r5, r1, #128	; 0x80

0000094c <.lloop6>:
     94c:	e5354004 	ldr	r4, [r5, #-4]!
     950:	e1540003 	cmp	r4, r3
     954:	1afffe9e 	bne	3d4 <fail>
     958:	e2533001 	subs	r3, r3, #1
     95c:	5afffffa 	bpl	94c <.lloop6>
     960:	e2800001 	add	r0, r0, #1
     964:	e3a03020 	mov	r3, #32
     968:	e1a05001 	mov	r5, r1

0000096c <.lloop7>:
     96c:	e4954004 	ldr	r4, [r5], #4
     970:	e2644020 	rsb	r4, r4, #32
     974:	e1540003 	cmp	r4, r3
     978:	1afffe95 	bne	3d4 <fail>
     97c:	e2533001 	subs	r3, r3, #1
     980:	1afffff9 	bne	96c <.lloop7>
     984:	e2800001 	add	r0, r0, #1
     988:	e3a0301f 	mov	r3, #31
     98c:	e281507c 	add	r5, r1, #124	; 0x7c

00000990 <.lloop8>:
     990:	e4154004 	ldr	r4, [r5], #-4
     994:	e1530004 	cmp	r3, r4
     998:	1afffe8d 	bne	3d4 <fail>
     99c:	e2533001 	subs	r3, r3, #1
     9a0:	5afffffa 	bpl	990 <.lloop8>
     9a4:	e2800001 	add	r0, r0, #1
     9a8:	e3e0600f 	mvn	r6, #15
     9ac:	e1a05002 	mov	r5, r2
     9b0:	e3a03010 	mov	r3, #16

000009b4 <.lloop9>:
     9b4:	e6954146 	ldr	r4, [r5], r6, asr #2
     9b8:	e1540003 	cmp	r4, r3
     9bc:	1afffe84 	bne	3d4 <fail>
     9c0:	e2533001 	subs	r3, r3, #1
     9c4:	5afffffa 	bpl	9b4 <.lloop9>
     9c8:	e3a00000 	mov	r0, #0
     9cc:	e12fff1e 	bx	lr

000009d0 <.larray1>:
     9d0:	000007c8 	.word	0x000007c8

000009d4 <.larray2>:
     9d4:	00000808 	.word	0x00000808

000009d8 <test_store>:
     9d8:	e3a00001 	mov	r0, #1
     9dc:	e51f1014 	ldr	r1, [pc, #-20]	; 9d0 <.larray1>
     9e0:	e3a02024 	mov	r2, #36	; 0x24
     9e4:	e5812000 	str	r2, [r1]
     9e8:	e5912000 	ldr	r2, [r1]
     9ec:	e3520024 	cmp	r2, #36	; 0x24
     9f0:	1afffe77 	bne	3d4 <fail>
     9f4:	e2800001 	add	r0, r0, #1
     9f8:	e3a020ab 	mov	r2, #171	; 0xab
     9fc:	e3a030bc 	mov	r3, #188	; 0xbc
     a00:	e5a12004 	str	r2, [r1, #4]!
     a04:	e4813004 	str	r3, [r1], #4
     a08:	e5312004 	ldr	r2, [r1, #-4]!
     a0c:	e5313004 	ldr	r3, [r1, #-4]!
     a10:	e3530024 	cmp	r3, #36	; 0x24
     a14:	1afffe6e 	bne	3d4 <fail>
     a18:	e35200bc 	cmp	r2, #188	; 0xbc
     a1c:	1afffe6c 	bne	3d4 <fail>
     a20:	e2800001 	add	r0, r0, #1
     a24:	e3a02008 	mov	r2, #8
     a28:	e3a03014 	mov	r3, #20
     a2c:	e1a04001 	mov	r4, r1
     a30:	e6842002 	str	r2, [r4], r2
     a34:	e6843002 	str	r3, [r4], r2
     a38:	e2444010 	sub	r4, r4, #16
     a3c:	e1540001 	cmp	r4, r1
     a40:	1afffe63 	bne	3d4 <fail>
     a44:	e5912000 	ldr	r2, [r1]
     a48:	e3520008 	cmp	r2, #8
     a4c:	1afffe60 	bne	3d4 <fail>
     a50:	e5912008 	ldr	r2, [r1, #8]
     a54:	e3520014 	cmp	r2, #20
     a58:	1afffe5d 	bne	3d4 <fail>
     a5c:	e3a00000 	mov	r0, #0
     a60:	e12fff1e 	bx	lr

00000a64 <test_byte>:
     a64:	e3a00001 	mov	r0, #1
     a68:	e51f10a0 	ldr	r1, [pc, #-160]	; 9d0 <.larray1>
     a6c:	e3a02008 	mov	r2, #8

00000a70 <.bloop>:
     a70:	e4c12001 	strb	r2, [r1], #1
     a74:	e2522001 	subs	r2, r2, #1
     a78:	1afffffc 	bne	a70 <.bloop>
     a7c:	e59f2040 	ldr	r2, [pc, #64]	; ac4 <.ref_words+0x4>
     a80:	e5313004 	ldr	r3, [r1, #-4]!
     a84:	e1520003 	cmp	r2, r3
     a88:	1afffe51 	bne	3d4 <fail>
     a8c:	e59f202c 	ldr	r2, [pc, #44]	; ac0 <.ref_words>
     a90:	e5313004 	ldr	r3, [r1, #-4]!
     a94:	e1520003 	cmp	r2, r3
     a98:	1afffe4d 	bne	3d4 <fail>
     a9c:	e2800001 	add	r0, r0, #1
     aa0:	e3a02008 	mov	r2, #8

00000aa4 <.bloop2>:
     aa4:	e4d13001 	ldrb	r3, [r1], #1
     aa8:	e1530002 	cmp	r3, r2
     aac:	1afffe48 	bne	3d4 <fail>
     ab0:	e2522001 	subs	r2, r2, #1
     ab4:	1afffffa 	bne	aa4 <.bloop2>
     ab8:	e3a00000 	mov	r0, #0
     abc:	e12fff1e 	bx	lr

00000ac0 <.ref_words>:
     ac0:	05060708 	.word	0x05060708
     ac4:	01020304 	.word	0x01020304

00000ac8 <test_cpsr>:
     ac8:	e3a00001 	mov	r0, #1
     acc:	e10f1000 	mrs	r1, CPSR
     ad0:	e20110ff 	and	r1, r1, #255	; 0xff
     ad4:	e128f001 	msr	CPSR_f, r1
     ad8:	6afffe3d 	bvs	3d4 <fail>
     adc:	2afffe3c 	bcs	3d4 <fail>
     ae0:	0afffe3b 	beq	3d4 <fail>
     ae4:	4afffe3a 	bmi	3d4 <fail>
     ae8:	8afffe39 	bhi	3d4 <fail>
     aec:	bafffe38 	blt	3d4 <fail>
     af0:	dafffe37 	ble	3d4 <fail>
     af4:	e2811201 	add	r1, r1, #268435456	; 0x10000000
     af8:	e129f001 	msr	CPSR_fc, r1
     afc:	7afffe34 	bvc	3d4 <fail>
     b00:	8afffe33 	bhi	3d4 <fail>
     b04:	aafffe32 	bge	3d4 <fail>
     b08:	cafffe31 	bgt	3d4 <fail>
     b0c:	e2811201 	add	r1, r1, #268435456	; 0x10000000
     b10:	e129f001 	msr	CPSR_fc, r1
     b14:	6afffe2e 	bvs	3d4 <fail>
     b18:	3afffe2d 	bcc	3d4 <fail>
     b1c:	9afffe2c 	bls	3d4 <fail>
     b20:	e2811201 	add	r1, r1, #268435456	; 0x10000000
     b24:	e129f001 	msr	CPSR_fc, r1
     b28:	9afffe29 	bls	3d4 <fail>
     b2c:	aafffe28 	bge	3d4 <fail>
     b30:	cafffe27 	bgt	3d4 <fail>
     b34:	e2811201 	add	r1, r1, #268435456	; 0x10000000
     b38:	e129f001 	msr	CPSR_fc, r1
     b3c:	1afffe24 	bne	3d4 <fail>
     b40:	8afffe23 	bhi	3d4 <fail>
     b44:	cafffe22 	bgt	3d4 <fail>
     b48:	e2811201 	add	r1, r1, #268435456	; 0x10000000
     b4c:	e129f001 	msr	CPSR_fc, r1
     b50:	cafffe1f 	bgt	3d4 <fail>
     b54:	e2811201 	add	r1, r1, #268435456	; 0x10000000
     b58:	e129f001 	msr	CPSR_fc, r1
     b5c:	8afffe1c 	bhi	3d4 <fail>
     b60:	e2811202 	add	r1, r1, #536870912	; 0x20000000
     b64:	e129f001 	msr	CPSR_fc, r1
     b68:	5afffe19 	bpl	3d4 <fail>
     b6c:	aafffe18 	bge	3d4 <fail>
     b70:	cafffe17 	bgt	3d4 <fail>
     b74:	e2811201 	add	r1, r1, #268435456	; 0x10000000
     b78:	e129f001 	msr	CPSR_fc, r1
     b7c:	bafffe14 	blt	3d4 <fail>
     b80:	e2811203 	add	r1, r1, #805306368	; 0x30000000
     b84:	e129f001 	msr	CPSR_fc, r1
     b88:	cafffe11 	bgt	3d4 <fail>
     b8c:	e2800001 	add	r0, r0, #1
     b90:	e1a0100e 	mov	r1, lr
     b94:	e1a0200d 	mov	r2, sp
     b98:	e3a0301e 	mov	r3, #30
     b9c:	e3a04028 	mov	r4, #40	; 0x28
     ba0:	e3a05032 	mov	r5, #50	; 0x32
     ba4:	e3a0603c 	mov	r6, #60	; 0x3c
     ba8:	e3a07046 	mov	r7, #70	; 0x46
     bac:	e3a08050 	mov	r8, #80	; 0x50
     bb0:	e3a0905a 	mov	r9, #90	; 0x5a
     bb4:	e3a0a064 	mov	sl, #100	; 0x64
     bb8:	e3a0b06e 	mov	fp, #110	; 0x6e
     bbc:	e3a0c078 	mov	ip, #120	; 0x78
     bc0:	e3a0d082 	mov	sp, #130	; 0x82
     bc4:	e3a0e08c 	mov	lr, #140	; 0x8c
     bc8:	e329f0d1 	msr	CPSR_fc, #209	; 0xd1
     bcc:	e353001e 	cmp	r3, #30
     bd0:	1a00005a 	bne	d40 <.fail>
     bd4:	e3a08008 	mov	r8, #8
     bd8:	e3a09009 	mov	r9, #9
     bdc:	e3a0a00a 	mov	sl, #10
     be0:	e3a0b00b 	mov	fp, #11
     be4:	e3a0c00c 	mov	ip, #12
     be8:	e3a0d00d 	mov	sp, #13
     bec:	e3a0e00e 	mov	lr, #14
     bf0:	e3a03003 	mov	r3, #3
     bf4:	e3a04004 	mov	r4, #4
     bf8:	e3a05005 	mov	r5, #5
     bfc:	e3a06006 	mov	r6, #6
     c00:	e3a07007 	mov	r7, #7
     c04:	e329f01f 	msr	CPSR_fc, #31
     c08:	e3530003 	cmp	r3, #3
     c0c:	1a00004b 	bne	d40 <.fail>
     c10:	e3540004 	cmp	r4, #4
     c14:	1a000049 	bne	d40 <.fail>
     c18:	e3550005 	cmp	r5, #5
     c1c:	1a000047 	bne	d40 <.fail>
     c20:	e3560006 	cmp	r6, #6
     c24:	1a000045 	bne	d40 <.fail>
     c28:	e3570007 	cmp	r7, #7
     c2c:	1a000043 	bne	d40 <.fail>
     c30:	e3580050 	cmp	r8, #80	; 0x50
     c34:	1a000041 	bne	d40 <.fail>
     c38:	e359005a 	cmp	r9, #90	; 0x5a
     c3c:	1a00003f 	bne	d40 <.fail>
     c40:	e35a0064 	cmp	sl, #100	; 0x64
     c44:	1a00003d 	bne	d40 <.fail>
     c48:	e35b006e 	cmp	fp, #110	; 0x6e
     c4c:	1a00003b 	bne	d40 <.fail>
     c50:	e35c0078 	cmp	ip, #120	; 0x78
     c54:	1a000039 	bne	d40 <.fail>
     c58:	e35d0082 	cmp	sp, #130	; 0x82
     c5c:	1a000037 	bne	d40 <.fail>
     c60:	e35e008c 	cmp	lr, #140	; 0x8c
     c64:	1a000035 	bne	d40 <.fail>
     c68:	e2800001 	add	r0, r0, #1
     c6c:	e3a0c078 	mov	ip, #120	; 0x78
     c70:	e3a0d082 	mov	sp, #130	; 0x82
     c74:	e3a0e08c 	mov	lr, #140	; 0x8c
     c78:	e329f013 	msr	CPSR_fc, #19
     c7c:	e35c0078 	cmp	ip, #120	; 0x78
     c80:	1a00002e 	bne	d40 <.fail>
     c84:	e3a0c00c 	mov	ip, #12
     c88:	e3a0d00d 	mov	sp, #13
     c8c:	e3a0e00e 	mov	lr, #14
     c90:	e329f01f 	msr	CPSR_fc, #31
     c94:	e35c000c 	cmp	ip, #12
     c98:	1a000028 	bne	d40 <.fail>
     c9c:	e35d0082 	cmp	sp, #130	; 0x82
     ca0:	1a000026 	bne	d40 <.fail>
     ca4:	e35e008c 	cmp	lr, #140	; 0x8c
     ca8:	1a000024 	bne	d40 <.fail>
     cac:	e2800001 	add	r0, r0, #1
     cb0:	e3a0c078 	mov	ip, #120	; 0x78
     cb4:	e3a0d082 	mov	sp, #130	; 0x82
     cb8:	e3a0e08c 	mov	lr, #140	; 0x8c
     cbc:	e329f01b 	msr	CPSR_fc, #27
     cc0:	e35c0078 	cmp	ip, #120	; 0x78
     cc4:	1a00001d 	bne	d40 <.fail>
     cc8:	e3a0c00c 	mov	ip, #12
     ccc:	e3a0d00d 	mov	sp, #13
     cd0:	e3a0e00e 	mov	lr, #14
     cd4:	e329f01f 	msr	CPSR_fc, #31
     cd8:	e35c000c 	cmp	ip, #12
     cdc:	1a000017 	bne	d40 <.fail>
     ce0:	e35d0082 	cmp	sp, #130	; 0x82
     ce4:	1a000015 	bne	d40 <.fail>
     ce8:	e35e008c 	cmp	lr, #140	; 0x8c
     cec:	1a000013 	bne	d40 <.fail>
     cf0:	e2800001 	add	r0, r0, #1
     cf4:	e3a0c078 	mov	ip, #120	; 0x78
     cf8:	e3a0d082 	mov	sp, #130	; 0x82
     cfc:	e3a0e08c 	mov	lr, #140	; 0x8c
     d00:	e329f092 	msr	CPSR_fc, #146	; 0x92
     d04:	e35c0078 	cmp	ip, #120	; 0x78
     d08:	1a00000c 	bne	d40 <.fail>
     d0c:	e3a0c00c 	mov	ip, #12
     d10:	e3a0d00d 	mov	sp, #13
     d14:	e3a0e00e 	mov	lr, #14
     d18:	e329f01f 	msr	CPSR_fc, #31
     d1c:	e35c000c 	cmp	ip, #12
     d20:	1a000006 	bne	d40 <.fail>
     d24:	e35d0082 	cmp	sp, #130	; 0x82
     d28:	1a000004 	bne	d40 <.fail>
     d2c:	e35e008c 	cmp	lr, #140	; 0x8c
     d30:	1a000002 	bne	d40 <.fail>
     d34:	e3a00000 	mov	r0, #0
     d38:	e1a0d002 	mov	sp, r2
     d3c:	e12fff11 	bx	r1

00000d40 <.fail>:
     d40:	e329f01f 	msr	CPSR_fc, #31
     d44:	eafffd02 	b	154 <fail10>

00000d48 <test_mul>:
     d48:	e3a00001 	mov	r0, #1
     d4c:	e3a01000 	mov	r1, #0
     d50:	e3a02002 	mov	r2, #2
     d54:	e3a03003 	mov	r3, #3
     d58:	e0040392 	mul	r4, r2, r3
     d5c:	e3540006 	cmp	r4, #6
     d60:	1afffd9b 	bne	3d4 <fail>
     d64:	4afffd9a 	bmi	3d4 <fail>
     d68:	e0150291 	muls	r5, r1, r2
     d6c:	1afffd98 	bne	3d4 <fail>
     d70:	4afffd97 	bmi	3d4 <fail>
     d74:	e0140492 	muls	r4, r2, r4
     d78:	e354000c 	cmp	r4, #12
     d7c:	1afffd94 	bne	3d4 <fail>
     d80:	4afffd93 	bmi	3d4 <fail>
     d84:	e3e03002 	mvn	r3, #2
     d88:	e0150392 	muls	r5, r2, r3
     d8c:	5afffd90 	bpl	3d4 <fail>
     d90:	e3750006 	cmn	r5, #6
     d94:	1afffd8e 	bne	3d4 <fail>
     d98:	e3e02001 	mvn	r2, #1
     d9c:	e0150392 	muls	r5, r2, r3
     da0:	4afffd8b 	bmi	3d4 <fail>
     da4:	e3550006 	cmp	r5, #6
     da8:	1afffd89 	bne	3d4 <fail>
     dac:	e2800001 	add	r0, r0, #1
     db0:	e3a0100a 	mov	r1, #10
     db4:	e3a02002 	mov	r2, #2
     db8:	e3a03005 	mov	r3, #5
     dbc:	e0343291 	mlas	r4, r1, r2, r3
     dc0:	4afffd83 	bmi	3d4 <fail>
     dc4:	6afffd82 	bvs	3d4 <fail>
     dc8:	e3540019 	cmp	r4, #25
     dcc:	1afffd80 	bne	3d4 <fail>
     dd0:	e3e01009 	mvn	r1, #9
     dd4:	e0343291 	mlas	r4, r1, r2, r3
     dd8:	5afffd7d 	bpl	3d4 <fail>
     ddc:	6afffd7c 	bvs	3d4 <fail>
     de0:	e374000f 	cmn	r4, #15
     de4:	1afffd7a 	bne	3d4 <fail>
     de8:	e3a03106 	mov	r3, #-2147483647	; 0x80000001
     dec:	e0343291 	mlas	r4, r1, r2, r3
     df0:	4afffd77 	bmi	3d4 <fail>
     df4:	e2800001 	add	r0, r0, #1
     df8:	e3a01212 	mov	r1, #536870913	; 0x20000001
     dfc:	e1a02001 	mov	r2, r1
     e00:	e3a03004 	mov	r3, #4
     e04:	e10432a1 	smlatb	r4, r1, r2, r3
     e08:	e3a05a02 	mov	r5, #8192	; 0x2000
     e0c:	e2855004 	add	r5, r5, #4
     e10:	e1540005 	cmp	r4, r5
     e14:	1afffd6e 	bne	3d4 <fail>
     e18:	e3a00000 	mov	r0, #0
     e1c:	e12fff1e 	bx	lr

00000e20 <test_ldmstm>:
     e20:	e3a00001 	mov	r0, #1
     e24:	e3a01001 	mov	r1, #1
     e28:	e3a02002 	mov	r2, #2
     e2c:	e3a03003 	mov	r3, #3
     e30:	e3a04004 	mov	r4, #4
     e34:	e51f546c 	ldr	r5, [pc, #-1132]	; 9d0 <.larray1>
     e38:	e1a06005 	mov	r6, r5
     e3c:	e8a6001e 	stmia	r6!, {r1, r2, r3, r4}
     e40:	e0466005 	sub	r6, r6, r5
     e44:	e3560010 	cmp	r6, #16
     e48:	1afffd61 	bne	3d4 <fail>
     e4c:	e5956000 	ldr	r6, [r5]
     e50:	e3560001 	cmp	r6, #1
     e54:	1afffd5e 	bne	3d4 <fail>
     e58:	e5956004 	ldr	r6, [r5, #4]
     e5c:	e3560002 	cmp	r6, #2
     e60:	1afffd5b 	bne	3d4 <fail>
     e64:	e5956008 	ldr	r6, [r5, #8]
     e68:	e3560003 	cmp	r6, #3
     e6c:	1afffd58 	bne	3d4 <fail>
     e70:	e595600c 	ldr	r6, [r5, #12]
     e74:	e3560004 	cmp	r6, #4
     e78:	1afffd55 	bne	3d4 <fail>
     e7c:	e2800001 	add	r0, r0, #1
     e80:	e1a06005 	mov	r6, r5
     e84:	e9a6000e 	stmib	r6!, {r1, r2, r3}
     e88:	e0466005 	sub	r6, r6, r5
     e8c:	e356000c 	cmp	r6, #12
     e90:	1afffd4f 	bne	3d4 <fail>
     e94:	e5956004 	ldr	r6, [r5, #4]
     e98:	e3560001 	cmp	r6, #1
     e9c:	1afffd4c 	bne	3d4 <fail>
     ea0:	e5956008 	ldr	r6, [r5, #8]
     ea4:	e3560002 	cmp	r6, #2
     ea8:	1afffd49 	bne	3d4 <fail>
     eac:	e595600c 	ldr	r6, [r5, #12]
     eb0:	e3560003 	cmp	r6, #3
     eb4:	1afffd46 	bne	3d4 <fail>
     eb8:	e2800001 	add	r0, r0, #1
     ebc:	e285600c 	add	r6, r5, #12
     ec0:	e926000e 	stmdb	r6!, {r1, r2, r3}
     ec4:	e1560005 	cmp	r6, r5
     ec8:	1afffd41 	bne	3d4 <fail>
     ecc:	e5956000 	ldr	r6, [r5]
     ed0:	e3560001 	cmp	r6, #1
     ed4:	1afffd3e 	bne	3d4 <fail>
     ed8:	e5956008 	ldr	r6, [r5, #8]
     edc:	e3560003 	cmp	r6, #3
     ee0:	1afffd3b 	bne	3d4 <fail>
     ee4:	e2800001 	add	r0, r0, #1
     ee8:	e285600c 	add	r6, r5, #12
     eec:	e826000e 	stmda	r6!, {r1, r2, r3}
     ef0:	e1560005 	cmp	r6, r5
     ef4:	1afffd36 	bne	3d4 <fail>
     ef8:	e5956004 	ldr	r6, [r5, #4]
     efc:	e3560001 	cmp	r6, #1
     f00:	1afffd33 	bne	3d4 <fail>
     f04:	e595600c 	ldr	r6, [r5, #12]
     f08:	e3560003 	cmp	r6, #3
     f0c:	1afffd30 	bne	3d4 <fail>
     f10:	e2800001 	add	r0, r0, #1
     f14:	e51f5548 	ldr	r5, [pc, #-1352]	; 9d4 <.larray2>
     f18:	e895001e 	ldm	r5, {r1, r2, r3, r4}
     f1c:	e3510010 	cmp	r1, #16
     f20:	1afffd2b 	bne	3d4 <fail>
     f24:	e3520011 	cmp	r2, #17
     f28:	1afffd29 	bne	3d4 <fail>
     f2c:	e3530012 	cmp	r3, #18
     f30:	1afffd27 	bne	3d4 <fail>
     f34:	e3540013 	cmp	r4, #19
     f38:	1afffd25 	bne	3d4 <fail>
     f3c:	e2800001 	add	r0, r0, #1
     f40:	e9b5001e 	ldmib	r5!, {r1, r2, r3, r4}
     f44:	e3510011 	cmp	r1, #17
     f48:	1afffd21 	bne	3d4 <fail>
     f4c:	e3520012 	cmp	r2, #18
     f50:	1afffd1f 	bne	3d4 <fail>
     f54:	e3530013 	cmp	r3, #19
     f58:	1afffd1d 	bne	3d4 <fail>
     f5c:	e3540014 	cmp	r4, #20
     f60:	1afffd1b 	bne	3d4 <fail>
     f64:	e2800001 	add	r0, r0, #1
     f68:	e935000e 	ldmdb	r5!, {r1, r2, r3}
     f6c:	e3530013 	cmp	r3, #19
     f70:	1afffd17 	bne	3d4 <fail>
     f74:	e3520012 	cmp	r2, #18
     f78:	1afffd15 	bne	3d4 <fail>
     f7c:	e3510011 	cmp	r1, #17
     f80:	1afffd13 	bne	3d4 <fail>
     f84:	e2800001 	add	r0, r0, #1
     f88:	e8150006 	ldmda	r5, {r1, r2}
     f8c:	e3510010 	cmp	r1, #16
     f90:	1afffd0f 	bne	3d4 <fail>
     f94:	e3520011 	cmp	r2, #17
     f98:	1afffd0d 	bne	3d4 <fail>
     f9c:	e3a00000 	mov	r0, #0
     fa0:	e12fff1e 	bx	lr

00000fa4 <test_r15jumps>:
     fa4:	e3a00001 	mov	r0, #1
     fa8:	e59f3150 	ldr	r3, [pc, #336]	; 1100 <.llabels>
     fac:	e3a01000 	mov	r1, #0
     fb0:	e3b02000 	movs	r2, #0
     fb4:	01a0f003 	moveq	pc, r3
     fb8:	e3b0200c 	movs	r2, #12
     fbc:	e3b0100d 	movs	r1, #13

00000fc0 <.label1>:
     fc0:	1afffd03 	bne	3d4 <fail>
     fc4:	e3510000 	cmp	r1, #0
     fc8:	1afffd01 	bne	3d4 <fail>
     fcc:	e3520000 	cmp	r2, #0
     fd0:	1afffcff 	bne	3d4 <fail>
     fd4:	e2800001 	add	r0, r0, #1
     fd8:	e59f3124 	ldr	r3, [pc, #292]	; 1104 <.llabels+0x4>
     fdc:	e3b0200c 	movs	r2, #12
     fe0:	01a0f003 	moveq	pc, r3
     fe4:	e3b02000 	movs	r2, #0

00000fe8 <.label2>:
     fe8:	e3520000 	cmp	r2, #0
     fec:	1afffcf8 	bne	3d4 <fail>
     ff0:	e2800001 	add	r0, r0, #1
     ff4:	e59f310c 	ldr	r3, [pc, #268]	; 1108 <.llabels+0x8>
     ff8:	e3b01000 	movs	r1, #0
     ffc:	e3b02000 	movs	r2, #0
    1000:	e283f008 	add	pc, r3, #8

00001004 <.label3>:
    1004:	e3b0100c 	movs	r1, #12
    1008:	e3b0200d 	movs	r2, #13
    100c:	1afffcf0 	bne	3d4 <fail>
    1010:	1afffcef 	bne	3d4 <fail>
    1014:	e2800001 	add	r0, r0, #1
    1018:	e3b02000 	movs	r2, #0
    101c:	e3b01000 	movs	r1, #0
    1020:	e28ff004 	add	pc, pc, #4
    1024:	e3b01001 	movs	r1, #1
    1028:	e3b02002 	movs	r2, #2
    102c:	1afffce8 	bne	3d4 <fail>
    1030:	1afffce7 	bne	3d4 <fail>
    1034:	e2800001 	add	r0, r0, #1
    1038:	e3b01001 	movs	r1, #1
    103c:	e3b02002 	movs	r2, #2
    1040:	159ff0c4 	ldrne	pc, [pc, #196]	; 110c <.llabels+0xc>
    1044:	e3b01000 	movs	r1, #0
    1048:	e3b02000 	movs	r2, #0

0000104c <.label4>:
    104c:	0afffce0 	beq	3d4 <fail>
    1050:	0afffcdf 	beq	3d4 <fail>
    1054:	059ff0b4 	ldreq	pc, [pc, #180]	; 1110 <.llabels+0x10>
    1058:	e3f02001 	mvns	r2, #1

0000105c <.label5>:
    105c:	5afffcdc 	bpl	3d4 <fail>
    1060:	e3720002 	cmn	r2, #2
    1064:	1afffcda 	bne	3d4 <fail>
    1068:	e2800001 	add	r0, r0, #1
    106c:	e59f30a4 	ldr	r3, [pc, #164]	; 1118 <.llabels+0x18>
    1070:	e3b01000 	movs	r1, #0
    1074:	e3b02000 	movs	r2, #0
    1078:	e89381f0 	ldm	r3, {r4, r5, r6, r7, r8, pc}
    107c:	e3b01004 	movs	r1, #4
    1080:	e3b02002 	movs	r2, #2

00001084 <.label6>:
    1084:	1afffcd2 	bne	3d4 <fail>
    1088:	1afffcd1 	bne	3d4 <fail>
    108c:	e3a00000 	mov	r0, #0
    1090:	e12fff1e 	bx	lr
    1094:	e1a00000 	nop			; (mov r0, r0)
    1098:	e1a00000 	nop			; (mov r0, r0)
    109c:	e1a00000 	nop			; (mov r0, r0)
    10a0:	e1a00000 	nop			; (mov r0, r0)
    10a4:	e1a00000 	nop			; (mov r0, r0)
    10a8:	e1a00000 	nop			; (mov r0, r0)
    10ac:	e1a00000 	nop			; (mov r0, r0)
    10b0:	e1a00000 	nop			; (mov r0, r0)
    10b4:	e1a00000 	nop			; (mov r0, r0)
    10b8:	e1a00000 	nop			; (mov r0, r0)
    10bc:	e1a00000 	nop			; (mov r0, r0)
	...

00001100 <.llabels>:
    1100:	00000fc0 	.word	0x00000fc0
    1104:	00000fe8 	.word	0x00000fe8
    1108:	00001004 	.word	0x00001004
    110c:	0000104c 	.word	0x0000104c
    1110:	0000105c 	.word	0x0000105c
    1114:	00001084 	.word	0x00001084
    1118:	00001100 	.word	0x00001100

0000111c <test_rti>:
    111c:	e3a00001 	mov	r0, #1
    1120:	e3a0c00e 	mov	ip, #14
    1124:	e329f0d1 	msr	CPSR_fc, #209	; 0xd1
    1128:	e369f17d 	msr	SPSR_fc, #1073741855	; 0x4000001f
    112c:	e3f0800b 	mvns	r8, #11
    1130:	e59f8084 	ldr	r8, [pc, #132]	; 11bc <.rtilabels>
    1134:	e1b0f008 	movs	pc, r8

00001138 <.rtilabel1>:
    1138:	e3a0cffa 	mov	ip, #1000	; 0x3e8
    113c:	4a00001a 	bmi	11ac <.rtifail>
    1140:	1a000019 	bne	11ac <.rtifail>
    1144:	e3a0ce7d 	mov	ip, #2000	; 0x7d0
    1148:	e2800001 	add	r0, r0, #1
    114c:	e329f0d1 	msr	CPSR_fc, #209	; 0xd1
    1150:	e59f8078 	ldr	r8, [pc, #120]	; 11d0 <.rtilabels+0x14>
    1154:	e9b80600 	ldmib	r8!, {r9, sl}
    1158:	e9d80600 	ldmib	r8, {r9, sl}^
    115c:	e3590001 	cmp	r9, #1
    1160:	1a000011 	bne	11ac <.rtifail>
    1164:	e35a0002 	cmp	sl, #2
    1168:	1a00000f 	bne	11ac <.rtifail>
    116c:	e329f01f 	msr	CPSR_fc, #31
    1170:	e3590003 	cmp	r9, #3
    1174:	1a00000c 	bne	11ac <.rtifail>
    1178:	e35a0004 	cmp	sl, #4
    117c:	1a00000a 	bne	11ac <.rtifail>
    1180:	e2800001 	add	r0, r0, #1
    1184:	e3a0cefa 	mov	ip, #4000	; 0xfa0
    1188:	e329f0d1 	msr	CPSR_fc, #209	; 0xd1
    118c:	e369f142 	msr	SPSR_fc, #-2147483632	; 0x80000010
    1190:	e59f8038 	ldr	r8, [pc, #56]	; 11d0 <.rtilabels+0x14>
    1194:	e2888008 	add	r8, r8, #8
    1198:	e3b09000 	movs	r9, #0
    119c:	e9d88e00 	ldmib	r8, {r9, sl, fp, pc}^

000011a0 <.rtilabel2>:
    11a0:	5a000001 	bpl	11ac <.rtifail>
    11a4:	0a000000 	beq	11ac <.rtifail>
    11a8:	eafffbf9 	b	194 <passed>

000011ac <.rtifail>:
    11ac:	e329f010 	msr	CPSR_fc, #16
    11b0:	e3a0c064 	mov	ip, #100	; 0x64
    11b4:	eafffffc 	b	11ac <.rtifail>
    11b8:	e12fff1e 	bx	lr

000011bc <.rtilabels>:
    11bc:	00001138 	.word	0x00001138
    11c0:	00000001 	.word	0x00000001
    11c4:	00000002 	.word	0x00000002
    11c8:	00000003 	.word	0x00000003
    11cc:	00000004 	.word	0x00000004
    11d0:	000011bc 	.word	0x000011bc
    11d4:	000011a0 	.word	0x000011a0

000011d8 <main>:
    11d8:	e52db004 	push	{fp}		; (str fp, [sp, #-4]!)
    11dc:	e28db000 	add	fp, sp, #0
    11e0:	e1a00000 	nop			; (mov r0, r0)
    11e4:	e24bd000 	sub	sp, fp, #0
    11e8:	e49db004 	pop	{fp}		; (ldr fp, [sp], #4)
    11ec:	e12fff1e 	bx	lr
